@ this is the gpio library as assmebler. Just as an idea of all the things needed. The c is at the end.
	.arch armv6
	.eabi_attribute 27, 3
	.eabi_attribute 28, 1
	.fpu vfp
	.eabi_attribute 20, 1
	.eabi_attribute 21, 1
	.eabi_attribute 23, 3
	.eabi_attribute 24, 1
	.eabi_attribute 25, 1
	.eabi_attribute 26, 2
	.eabi_attribute 30, 6
	.eabi_attribute 18, 4
	.file	"gpio.c"
	.text
.Ltext0:
	.cfi_sections	.debug_frame
	.local	gGpioMap
	.comm	gGpioMap,4,4
	.local	pcbRev
	.comm	pcbRev,4,4
	.section	.rodata
	.align	2
.LC2:
	.ascii	"/dev/mem\000"
	.align	2
.LC3:
	.ascii	"gpio.c\000"
	.align	2
.LC4:
	.ascii	"open() failed. /dev/mem. errno %s.\000"
	.align	2
.LC5:
	.ascii	"mmap() failed. errno: %s.\000"
	.align	2
.LC6:
	.ascii	"close() failed. errno: %s.\000"
	.align	2
.LC7:
	.ascii	"/proc/cpuinfo\000"
	.align	2
.LC8:
	.ascii	"r\000"
	.align	2
.LC9:
	.ascii	"Revision\000"
	.align	2
.LC10:
	.ascii	"did not find revision in cpuinfo.\000"
	.align	2
.LC11:
	.ascii	"can't open /proc/cpuinfo. errno: %s.\000"
	.text
	.align	2
	.global	gpioSetup
	.type	gpioSetup, %function
gpioSetup:
.LFB0:
	.file 1 "gpio.c"
	.loc 1 45 0
	.cfi_startproc
	@ args = 0, pretend = 0, frame = 32
	@ frame_needed = 1, uses_anonymous_args = 0
	stmfd	sp!, {r4, fp, lr}
.LCFI0:
	.cfi_def_cfa_offset 12
	.cfi_offset 14, -4
	.cfi_offset 11, -8
	.cfi_offset 4, -12
	add	fp, sp, #8
.LCFI1:
	.cfi_def_cfa 11, 4
	sub	sp, sp, #44
	.loc 1 46 0
	mov	r3, #0
	str	r3, [fp, #-20]
	.loc 1 47 0
	mov	r3, #1
	str	r3, [fp, #-16]
	.loc 1 49 0
	ldr	r0, .L13
	mov	r1, #2
	bl	open
	str	r0, [fp, #-20]
	ldr	r3, [fp, #-20]
	cmp	r3, #0
	bge	.L2
	.loc 1 51 0
	ldr	r3, .L13+4
	ldr	r4, [r3, #0]
	bl	__errno_location
	mov	r3, r0
	ldr	r3, [r3, #0]
	mov	r0, r3
	bl	strerror
	mov	r3, r0
	str	r3, [sp, #0]
	mov	r0, r4
	ldr	r1, .L13+8
	mov	r2, #51
	ldr	r3, .L13+12
	bl	dbgPrint
	.loc 1 52 0
	mov	r3, #5
	str	r3, [fp, #-16]
	b	.L3
.L2:
	.loc 1 55 0
	ldr	r3, [fp, #-20]
	str	r3, [sp, #0]
	ldr	r3, .L13+16
	str	r3, [sp, #4]
	mov	r0, #0
	mov	r1, #156
	mov	r2, #3
	mov	r3, #1
	bl	mmap
	mov	r2, r0
	ldr	r3, .L13+20
	str	r2, [r3, #0]
	ldr	r3, .L13+20
	ldr	r3, [r3, #0]
	cmn	r3, #1
	bne	.L4
	.loc 1 62 0
	ldr	r3, .L13+4
	ldr	r4, [r3, #0]
	bl	__errno_location
	mov	r3, r0
	ldr	r3, [r3, #0]
	mov	r0, r3
	bl	strerror
	mov	r3, r0
	str	r3, [sp, #0]
	mov	r0, r4
	ldr	r1, .L13+8
	mov	r2, #62
	ldr	r3, .L13+24
	bl	dbgPrint
	.loc 1 63 0
	mov	r3, #5
	str	r3, [fp, #-16]
	b	.L3
.L4:
	.loc 1 67 0
	ldr	r0, [fp, #-20]
	bl	close
	mov	r3, r0
	cmp	r3, #0
	beq	.L5
	.loc 1 69 0
	ldr	r3, .L13+4
	ldr	r4, [r3, #0]
	bl	__errno_location
	mov	r3, r0
	ldr	r3, [r3, #0]
	mov	r0, r3
	bl	strerror
	mov	r3, r0
	str	r3, [sp, #0]
	mov	r0, r4
	ldr	r1, .L13+8
	mov	r2, #69
	ldr	r3, .L13+28
	bl	dbgPrint
	.loc 1 70 0
	mov	r3, #5
	str	r3, [fp, #-16]
	b	.L3
.L5:
.LBB2:
	.loc 1 75 0
	ldr	r2, .L13+32
	ldr	r3, .L13+36
	mov	r0, r2
	mov	r1, r3
	bl	fopen
	str	r0, [fp, #-24]
	.loc 1 76 0
	ldr	r3, [fp, #-24]
	cmp	r3, #0
	beq	.L6
.LBB3:
	.loc 1 78 0
	mov	r3, #0
	str	r3, [fp, #-40]
	.loc 1 82 0
	b	.L7
.L9:
	.loc 1 84 0
	ldr	r3, [fp, #-40]
	mov	r0, r3
	ldr	r1, .L13+40
	bl	strstr
	mov	r2, r0
	ldr	r3, [fp, #-40]
	cmp	r2, r3
	bne	.L7
.LBB4:
	.loc 1 86 0
	ldr	r3, [fp, #-40]
	mov	r0, r3
	mov	r1, #58
	bl	strchr
	str	r0, [fp, #-32]
	.loc 1 87 0
	ldr	r3, [fp, #-32]
	cmp	r3, #0
	beq	.L7
.LBB5:
	.loc 1 89 0
	ldr	r3, [fp, #-32]
	add	r3, r3, #1
	mov	r0, r3
	mov	r1, #0
	mov	r2, #16
	bl	strtol
	str	r0, [fp, #-36]
	.loc 1 91 0
	ldr	r3, [fp, #-36]
	cmp	r3, #3
	bgt	.L8
	.loc 1 93 0
	ldr	r3, .L13+44
	mov	r2, #1
	str	r2, [r3, #0]
	b	.L7
.L8:
	.loc 1 98 0
	ldr	r3, .L13+44
	mov	r2, #2
	str	r2, [r3, #0]
.L7:
.LBE5:
.LBE4:
	.loc 1 82 0 discriminator 1
	sub	r2, fp, #40
	sub	r3, fp, #44
	mov	r0, r2
	mov	r1, r3
	ldr	r2, [fp, #-24]
	bl	getline
	str	r0, [fp, #-28]
	ldr	r3, [fp, #-28]
	cmp	r3, #0
	bge	.L9
	.loc 1 103 0
	ldr	r3, .L13+44
	ldr	r3, [r3, #0]
	cmp	r3, #0
	beq	.L10
	.loc 1 105 0
	mov	r3, #0
	str	r3, [fp, #-16]
	b	.L11
.L10:
	.loc 1 109 0
	ldr	r3, .L13+4
	ldr	r3, [r3, #0]
	mov	r0, r3
	ldr	r1, .L13+8
	mov	r2, #109
	ldr	r3, .L13+48
	bl	dbgPrint
	.loc 1 110 0
	mov	r3, #5
	str	r3, [fp, #-16]
.L11:
	.loc 1 113 0
	ldr	r3, [fp, #-40]
	cmp	r3, #0
	beq	.L12
	.loc 1 115 0
	ldr	r3, [fp, #-40]
	mov	r0, r3
	bl	free
.L12:
	.loc 1 117 0
	ldr	r0, [fp, #-24]
	bl	fclose
	b	.L3
.L6:
.LBE3:
	.loc 1 121 0
	ldr	r3, .L13+4
	ldr	r4, [r3, #0]
	bl	__errno_location
	mov	r3, r0
	ldr	r3, [r3, #0]
	mov	r0, r3
	bl	strerror
	mov	r3, r0
	str	r3, [sp, #0]
	mov	r0, r4
	ldr	r1, .L13+8
	mov	r2, #121
	ldr	r3, .L13+52
	bl	dbgPrint
	.loc 1 122 0
	mov	r3, #5
	str	r3, [fp, #-16]
.L3:
.LBE2:
	.loc 1 126 0
	ldr	r3, [fp, #-16]
	.loc 1 127 0
	mov	r0, r3
	sub	sp, fp, #8
	ldmfd	sp!, {r4, fp, pc}
.L14:
	.align	2
.L13:
	.word	.LC2
	.word	stderr
	.word	.LC3
	.word	.LC4
	.word	538968064
	.word	gGpioMap
	.word	.LC5
	.word	.LC6
	.word	.LC7
	.word	.LC8
	.word	.LC9
	.word	pcbRev
	.word	.LC10
	.word	.LC11
	.cfi_endproc
.LFE0:
	.size	gpioSetup, .-gpioSetup
	.section	.rodata
	.align	2
.LC12:
	.ascii	"gGpioMap was NULL. Ensure gpioSetup() was called su"
	.ascii	"ccessfully.\000"
	.align	2
.LC13:
	.ascii	"mummap() failed. errno %s.\000"
	.text
	.align	2
	.global	gpioCleanup
	.type	gpioCleanup, %function
gpioCleanup:
.LFB1:
	.loc 1 135 0
	.cfi_startproc
	@ args = 0, pretend = 0, frame = 8
	@ frame_needed = 1, uses_anonymous_args = 0
	stmfd	sp!, {r4, fp, lr}
.LCFI2:
	.cfi_def_cfa_offset 12
	.cfi_offset 14, -4
	.cfi_offset 11, -8
	.cfi_offset 4, -12
	add	fp, sp, #8
.LCFI3:
	.cfi_def_cfa 11, 4
	sub	sp, sp, #20
	.loc 1 136 0
	mov	r3, #1
	str	r3, [fp, #-16]
	.loc 1 138 0
	ldr	r3, .L19
	ldr	r3, [r3, #0]
	cmp	r3, #0
	bne	.L16
	.loc 1 140 0
	ldr	r3, .L19+4
	ldr	r3, [r3, #0]
	mov	r0, r3
	ldr	r1, .L19+8
	mov	r2, #140
	ldr	r3, .L19+12
	bl	dbgPrint
	.loc 1 141 0
	mov	r3, #4
	str	r3, [fp, #-16]
	b	.L17
.L16:
	.loc 1 144 0
	ldr	r3, .L19
	ldr	r3, [r3, #0]
	mov	r0, r3
	mov	r1, #156
	bl	munmap
	mov	r3, r0
	cmp	r3, #0
	beq	.L18
	.loc 1 146 0
	ldr	r3, .L19+4
	ldr	r4, [r3, #0]
	bl	__errno_location
	mov	r3, r0
	ldr	r3, [r3, #0]
	mov	r0, r3
	bl	strerror
	mov	r3, r0
	str	r3, [sp, #0]
	mov	r0, r4
	ldr	r1, .L19+8
	mov	r2, #146
	ldr	r3, .L19+16
	bl	dbgPrint
	.loc 1 147 0
	mov	r3, #5
	str	r3, [fp, #-16]
	b	.L17
.L18:
	.loc 1 152 0
	ldr	r3, .L19
	mov	r2, #0
	str	r2, [r3, #0]
	.loc 1 153 0
	mov	r3, #0
	str	r3, [fp, #-16]
.L17:
	.loc 1 155 0
	ldr	r3, [fp, #-16]
	.loc 1 156 0
	mov	r0, r3
	sub	sp, fp, #8
	ldmfd	sp!, {r4, fp, pc}
.L20:
	.align	2
.L19:
	.word	gGpioMap
	.word	stderr
	.word	.LC3
	.word	.LC12
	.word	.LC13
	.cfi_endproc
.LFE1:
	.size	gpioCleanup, .-gpioCleanup
	.section	.rodata
	.align	2
.LC14:
	.ascii	"gGpioMap was NULL. Ensure gpioSetup() called succes"
	.ascii	"sfully.\000"
	.align	2
.LC15:
	.ascii	"eFunction was out of range. %d\000"
	.align	2
.LC16:
	.ascii	"gpioValidatePin() failed. Ensure pin %d is valid.\000"
	.text
	.align	2
	.global	gpioSetFunction
	.type	gpioSetFunction, %function
gpioSetFunction:
.LFB2:
	.loc 1 165 0
	.cfi_startproc
	@ args = 0, pretend = 0, frame = 16
	@ frame_needed = 1, uses_anonymous_args = 0
	stmfd	sp!, {fp, lr}
.LCFI4:
	.cfi_def_cfa_offset 8
	.cfi_offset 14, -4
	.cfi_offset 11, -8
	add	fp, sp, #4
.LCFI5:
	.cfi_def_cfa 11, 4
	sub	sp, sp, #24
	str	r0, [fp, #-16]
	str	r1, [fp, #-20]
	.loc 1 166 0
	mov	r3, #1
	str	r3, [fp, #-8]
	.loc 1 168 0
	ldr	r3, .L26
	ldr	r3, [r3, #0]
	cmp	r3, #0
	bne	.L22
	.loc 1 170 0
	ldr	r3, .L26+4
	ldr	r3, [r3, #0]
	mov	r0, r3
	ldr	r1, .L26+8
	mov	r2, #170
	ldr	r3, .L26+12
	bl	dbgPrint
	.loc 1 171 0
	mov	r3, #4
	str	r3, [fp, #-8]
	b	.L23
.L22:
	.loc 1 174 0
	ldr	r3, [fp, #-20]
	cmp	r3, #7
	bls	.L24
	.loc 1 176 0
	ldr	r3, .L26+4
	ldr	r3, [r3, #0]
	ldr	r2, [fp, #-20]
	str	r2, [sp, #0]
	mov	r0, r3
	ldr	r1, .L26+8
	mov	r2, #176
	ldr	r3, .L26+16
	bl	dbgPrint
	.loc 1 177 0
	mov	r3, #3
	str	r3, [fp, #-8]
	b	.L23
.L24:
	.loc 1 180 0
	ldr	r0, [fp, #-16]
	bl	gpioValidatePin
	str	r0, [fp, #-8]
	ldr	r3, [fp, #-8]
	cmp	r3, #0
	beq	.L25
	.loc 1 182 0
	ldr	r3, .L26+4
	ldr	r3, [r3, #0]
	ldr	r2, [fp, #-16]
	str	r2, [sp, #0]
	mov	r0, r3
	ldr	r1, .L26+8
	mov	r2, #182
	ldr	r3, .L26+20
	bl	dbgPrint
	b	.L23
.L25:
	.loc 1 189 0
	ldr	r3, .L26
	ldr	r1, [r3, #0]
	ldr	r3, [fp, #-16]
	ldr	r2, .L26+24
	smull	r0, r2, r2, r3
	mov	r2, r2, asr #2
	mov	r3, r3, asr #31
	rsb	r3, r3, r2
	mov	r2, r3
	mov	r2, r2, asl #2
	add	r0, r1, r2
	ldr	r2, .L26
	ldr	r2, [r2, #0]
	mov	r3, r3, asl #2
	add	r3, r2, r3
	ldr	ip, [r3, #0]
	ldr	r1, [fp, #-16]
	ldr	r3, .L26+24
	smull	r2, r3, r3, r1
	mov	r2, r3, asr #2
	mov	r3, r1, asr #31
	rsb	r2, r3, r2
	mov	r3, r2
	mov	r3, r3, asl #2
	add	r3, r3, r2
	mov	r3, r3, asl #1
	rsb	r2, r3, r1
	mov	r3, r2
	mov	r3, r3, asl #1
	add	r3, r3, r2
	mov	r2, #7
	mov	r3, r2, asl r3
	mvn	r3, r3
	and	r3, ip, r3
	str	r3, [r0, #0]
	.loc 1 192 0
	ldr	r3, .L26
	ldr	r1, [r3, #0]
	ldr	r3, [fp, #-16]
	ldr	r2, .L26+24
	smull	r0, r2, r2, r3
	mov	r2, r2, asr #2
	mov	r3, r3, asr #31
	rsb	r3, r3, r2
	mov	r2, r3
	mov	r2, r2, asl #2
	add	r0, r1, r2
	ldr	r2, .L26
	ldr	r2, [r2, #0]
	mov	r3, r3, asl #2
	add	r3, r2, r3
	ldr	ip, [r3, #0]
	ldr	r1, [fp, #-16]
	ldr	r3, .L26+24
	smull	r2, r3, r3, r1
	mov	r2, r3, asr #2
	mov	r3, r1, asr #31
	rsb	r2, r3, r2
	mov	r3, r2
	mov	r3, r3, asl #2
	add	r3, r3, r2
	mov	r3, r3, asl #1
	rsb	r2, r3, r1
	mov	r3, r2
	mov	r3, r3, asl #1
	add	r3, r3, r2
	ldr	r2, [fp, #-20]
	mov	r3, r2, asl r3
	orr	r3, ip, r3
	str	r3, [r0, #0]
	.loc 1 194 0
	mov	r3, #0
	str	r3, [fp, #-8]
.L23:
	.loc 1 197 0
	ldr	r3, [fp, #-8]
	.loc 1 198 0
	mov	r0, r3
	sub	sp, fp, #4
	ldmfd	sp!, {fp, pc}
.L27:
	.align	2
.L26:
	.word	gGpioMap
	.word	stderr
	.word	.LC3
	.word	.LC14
	.word	.LC15
	.word	.LC16
	.word	1717986919
	.cfi_endproc
.LFE2:
	.size	gpioSetFunction, .-gpioSetFunction
	.section	.rodata
	.align	2
.LC17:
	.ascii	"state %d should have been %d or %d\000"
	.text
	.align	2
	.global	gpioSetPin
	.type	gpioSetPin, %function
gpioSetPin:
.LFB3:
	.loc 1 209 0
	.cfi_startproc
	@ args = 0, pretend = 0, frame = 16
	@ frame_needed = 1, uses_anonymous_args = 0
	stmfd	sp!, {fp, lr}
.LCFI6:
	.cfi_def_cfa_offset 8
	.cfi_offset 14, -4
	.cfi_offset 11, -8
	add	fp, sp, #4
.LCFI7:
	.cfi_def_cfa 11, 4
	sub	sp, sp, #32
	str	r0, [fp, #-16]
	str	r1, [fp, #-20]
	.loc 1 210 0
	mov	r3, #1
	str	r3, [fp, #-8]
	.loc 1 212 0
	ldr	r3, .L34
	ldr	r3, [r3, #0]
	cmp	r3, #0
	bne	.L29
	.loc 1 214 0
	ldr	r3, .L34+4
	ldr	r3, [r3, #0]
	mov	r0, r3
	ldr	r1, .L34+8
	mov	r2, #214
	ldr	r3, .L34+12
	bl	dbgPrint
	.loc 1 215 0
	mov	r3, #4
	str	r3, [fp, #-8]
	b	.L30
.L29:
	.loc 1 218 0
	ldr	r0, [fp, #-16]
	bl	gpioValidatePin
	str	r0, [fp, #-8]
	ldr	r3, [fp, #-8]
	cmp	r3, #0
	beq	.L31
	.loc 1 220 0
	ldr	r3, .L34+4
	ldr	r3, [r3, #0]
	ldr	r2, [fp, #-16]
	str	r2, [sp, #0]
	mov	r0, r3
	ldr	r1, .L34+8
	mov	r2, #220
	ldr	r3, .L34+16
	bl	dbgPrint
	b	.L30
.L31:
	.loc 1 223 0
	ldr	r3, [fp, #-20]
	cmp	r3, #1
	bne	.L32
	.loc 1 227 0
	ldr	r3, .L34
	ldr	r3, [r3, #0]
	add	r3, r3, #28
	mov	r1, #1
	ldr	r2, [fp, #-16]
	mov	r2, r1, asl r2
	str	r2, [r3, #0]
	.loc 1 228 0
	mov	r3, #0
	str	r3, [fp, #-8]
	b	.L30
.L32:
	.loc 1 231 0
	ldr	r3, [fp, #-20]
	cmp	r3, #0
	bne	.L33
	.loc 1 235 0
	ldr	r3, .L34
	ldr	r3, [r3, #0]
	add	r3, r3, #40
	mov	r1, #1
	ldr	r2, [fp, #-16]
	mov	r2, r1, asl r2
	str	r2, [r3, #0]
	.loc 1 236 0
	mov	r3, #0
	str	r3, [fp, #-8]
	b	.L30
.L33:
	.loc 1 241 0
	ldr	r3, .L34+4
	ldr	r3, [r3, #0]
	ldr	r2, [fp, #-20]
	str	r2, [sp, #0]
	mov	r2, #0
	str	r2, [sp, #4]
	mov	r2, #1
	str	r2, [sp, #8]
	mov	r0, r3
	ldr	r1, .L34+8
	mov	r2, #241
	ldr	r3, .L34+20
	bl	dbgPrint
	.loc 1 242 0
	mov	r3, #3
	str	r3, [fp, #-8]
.L30:
	.loc 1 245 0
	ldr	r3, [fp, #-8]
	.loc 1 246 0
	mov	r0, r3
	sub	sp, fp, #4
	ldmfd	sp!, {fp, pc}
.L35:
	.align	2
.L34:
	.word	gGpioMap
	.word	stderr
	.word	.LC3
	.word	.LC12
	.word	.LC16
	.word	.LC17
	.cfi_endproc
.LFE3:
	.size	gpioSetPin, .-gpioSetPin
	.section	.rodata
	.align	2
.LC18:
	.ascii	"Parameter state was NULL.\000"
	.align	2
.LC19:
	.ascii	"gpioValidatePin() failed. Pin %d isn't valid.\000"
	.text
	.align	2
	.global	gpioReadPin
	.type	gpioReadPin, %function
gpioReadPin:
.LFB4:
	.loc 1 256 0
	.cfi_startproc
	@ args = 0, pretend = 0, frame = 16
	@ frame_needed = 1, uses_anonymous_args = 0
	stmfd	sp!, {fp, lr}
.LCFI8:
	.cfi_def_cfa_offset 8
	.cfi_offset 14, -4
	.cfi_offset 11, -8
	add	fp, sp, #4
.LCFI9:
	.cfi_def_cfa 11, 4
	sub	sp, sp, #24
	str	r0, [fp, #-16]
	str	r1, [fp, #-20]
	.loc 1 257 0
	mov	r3, #1
	str	r3, [fp, #-8]
	.loc 1 259 0
	ldr	r3, .L43
	ldr	r3, [r3, #0]
	cmp	r3, #0
	bne	.L37
	.loc 1 261 0
	ldr	r3, .L43+4
	ldr	r3, [r3, #0]
	mov	r0, r3
	ldr	r1, .L43+8
	ldr	r2, .L43+12
	ldr	r3, .L43+16
	bl	dbgPrint
	.loc 1 262 0
	mov	r3, #4
	str	r3, [fp, #-8]
	b	.L38
.L37:
	.loc 1 265 0
	ldr	r3, [fp, #-20]
	cmp	r3, #0
	bne	.L39
	.loc 1 267 0
	ldr	r3, .L43+4
	ldr	r3, [r3, #0]
	mov	r0, r3
	ldr	r1, .L43+8
	ldr	r2, .L43+20
	ldr	r3, .L43+24
	bl	dbgPrint
	.loc 1 268 0
	mov	r3, #4
	str	r3, [fp, #-8]
	b	.L38
.L39:
	.loc 1 271 0
	ldr	r0, [fp, #-16]
	bl	gpioValidatePin
	str	r0, [fp, #-8]
	ldr	r3, [fp, #-8]
	cmp	r3, #0
	beq	.L40
	.loc 1 273 0
	ldr	r3, .L43+4
	ldr	r3, [r3, #0]
	ldr	r2, [fp, #-16]
	str	r2, [sp, #0]
	mov	r0, r3
	ldr	r1, .L43+8
	ldr	r2, .L43+28
	ldr	r3, .L43+32
	bl	dbgPrint
	b	.L38
.L40:
	.loc 1 279 0
	ldr	r3, .L43
	ldr	r3, [r3, #0]
	add	r3, r3, #52
	ldr	r2, [r3, #0]
	mov	r1, #1
	ldr	r3, [fp, #-16]
	mov	r3, r1, asl r3
	and	r3, r2, r3
	cmp	r3, #0
	beq	.L41
	.loc 1 281 0
	ldr	r3, [fp, #-20]
	mov	r2, #1
	str	r2, [r3, #0]
	b	.L42
.L41:
	.loc 1 286 0
	ldr	r3, [fp, #-20]
	mov	r2, #0
	str	r2, [r3, #0]
.L42:
	.loc 1 289 0
	mov	r3, #0
	str	r3, [fp, #-8]
.L38:
	.loc 1 292 0
	ldr	r3, [fp, #-8]
	.loc 1 293 0
	mov	r0, r3
	sub	sp, fp, #4
	ldmfd	sp!, {fp, pc}
.L44:
	.align	2
.L43:
	.word	gGpioMap
	.word	stderr
	.word	.LC3
	.word	261
	.word	.LC12
	.word	267
	.word	.LC18
	.word	273
	.word	.LC19
	.cfi_endproc
.LFE4:
	.size	gpioReadPin, .-gpioReadPin
	.section	.rodata
	.align	2
.LC20:
	.ascii	"resistorOption value: %d was out of range.\000"
	.text
	.align	2
	.global	gpioSetPullResistor
	.type	gpioSetPullResistor, %function
gpioSetPullResistor:
.LFB5:
	.loc 1 303 0
	.cfi_startproc
	@ args = 0, pretend = 0, frame = 24
	@ frame_needed = 1, uses_anonymous_args = 0
	stmfd	sp!, {fp, lr}
.LCFI10:
	.cfi_def_cfa_offset 8
	.cfi_offset 14, -4
	.cfi_offset 11, -8
	add	fp, sp, #4
.LCFI11:
	.cfi_def_cfa 11, 4
	sub	sp, sp, #32
	str	r0, [fp, #-24]
	str	r1, [fp, #-28]
	.loc 1 304 0
	mov	r3, #1
	str	r3, [fp, #-8]
	.loc 1 307 0
	ldr	r3, .L50
	ldr	r3, [r3, #0]
	cmp	r3, #0
	bne	.L46
	.loc 1 309 0
	ldr	r3, .L50+4
	ldr	r3, [r3, #0]
	mov	r0, r3
	ldr	r1, .L50+8
	ldr	r2, .L50+12
	ldr	r3, .L50+16
	bl	dbgPrint
	.loc 1 310 0
	mov	r3, #4
	str	r3, [fp, #-8]
	b	.L47
.L46:
	.loc 1 313 0
	ldr	r0, [fp, #-24]
	bl	gpioValidatePin
	str	r0, [fp, #-8]
	ldr	r3, [fp, #-8]
	cmp	r3, #0
	beq	.L48
	.loc 1 315 0
	ldr	r3, .L50+4
	ldr	r3, [r3, #0]
	ldr	r2, [fp, #-24]
	str	r2, [sp, #0]
	mov	r0, r3
	ldr	r1, .L50+8
	ldr	r2, .L50+20
	ldr	r3, .L50+24
	bl	dbgPrint
	b	.L47
.L48:
	.loc 1 318 0
	ldr	r3, [fp, #-28]
	cmp	r3, #2
	bls	.L49
	.loc 1 320 0
	ldr	r3, .L50+4
	ldr	r3, [r3, #0]
	ldr	r2, [fp, #-28]
	str	r2, [sp, #0]
	mov	r0, r3
	ldr	r1, .L50+8
	mov	r2, #320
	ldr	r3, .L50+28
	bl	dbgPrint
	.loc 1 321 0
	mov	r3, #3
	str	r3, [fp, #-8]
	b	.L47
.L49:
	.loc 1 326 0
	mov	r3, #0
	str	r3, [fp, #-16]
	.loc 1 327 0
	mov	r3, #1000
	str	r3, [fp, #-12]
	.loc 1 330 0
	ldr	r3, .L50
	ldr	r3, [r3, #0]
	add	r3, r3, #148
	ldr	r2, [fp, #-28]
	str	r2, [r3, #0]
	.loc 1 332 0
	sub	r3, fp, #16
	mov	r0, r3
	mov	r1, #0
	bl	nanosleep
	.loc 1 334 0
	ldr	r3, .L50
	ldr	r3, [r3, #0]
	add	r3, r3, #152
	mov	r1, #1
	ldr	r2, [fp, #-24]
	mov	r2, r1, asl r2
	str	r2, [r3, #0]
	.loc 1 336 0
	sub	r3, fp, #16
	mov	r0, r3
	mov	r1, #0
	bl	nanosleep
	.loc 1 337 0
	ldr	r3, .L50
	ldr	r3, [r3, #0]
	add	r3, r3, #148
	mov	r2, #0
	str	r2, [r3, #0]
	.loc 1 338 0
	ldr	r3, .L50
	ldr	r3, [r3, #0]
	add	r3, r3, #152
	mov	r2, #0
	str	r2, [r3, #0]
	.loc 1 340 0
	mov	r3, #0
	str	r3, [fp, #-8]
.L47:
	.loc 1 344 0
	ldr	r3, [fp, #-8]
	.loc 1 345 0
	mov	r0, r3
	sub	sp, fp, #4
	ldmfd	sp!, {fp, pc}
.L51:
	.align	2
.L50:
	.word	gGpioMap
	.word	stderr
	.word	.LC3
	.word	309
	.word	.LC12
	.word	315
	.word	.LC19
	.word	.LC20
	.cfi_endproc
.LFE5:
	.size	gpioSetPullResistor, .-gpioSetPullResistor
	.section	.rodata
	.align	2
.LC21:
	.ascii	"Parameter gpioNumberScl is NULL.\000"
	.align	2
.LC22:
	.ascii	"Parameter gpioNumberSda is NULL.\000"
	.text
	.align	2
	.global	gpioGetI2cPins
	.type	gpioGetI2cPins, %function
gpioGetI2cPins:
.LFB6:
	.loc 1 357 0
	.cfi_startproc
	@ args = 0, pretend = 0, frame = 16
	@ frame_needed = 1, uses_anonymous_args = 0
	stmfd	sp!, {fp, lr}
.LCFI12:
	.cfi_def_cfa_offset 8
	.cfi_offset 14, -4
	.cfi_offset 11, -8
	add	fp, sp, #4
.LCFI13:
	.cfi_def_cfa 11, 4
	sub	sp, sp, #16
	str	r0, [fp, #-16]
	str	r1, [fp, #-20]
	.loc 1 358 0
	mov	r3, #1
	str	r3, [fp, #-8]
	.loc 1 360 0
	ldr	r3, .L58
	ldr	r3, [r3, #0]
	cmp	r3, #0
	bne	.L53
	.loc 1 362 0
	ldr	r3, .L58+4
	ldr	r3, [r3, #0]
	mov	r0, r3
	ldr	r1, .L58+8
	ldr	r2, .L58+12
	ldr	r3, .L58+16
	bl	dbgPrint
	.loc 1 363 0
	mov	r3, #4
	str	r3, [fp, #-8]
	b	.L54
.L53:
	.loc 1 366 0
	ldr	r3, [fp, #-16]
	cmp	r3, #0
	bne	.L55
	.loc 1 368 0
	ldr	r3, .L58+4
	ldr	r3, [r3, #0]
	mov	r0, r3
	ldr	r1, .L58+8
	mov	r2, #368
	ldr	r3, .L58+20
	bl	dbgPrint
	.loc 1 369 0
	mov	r3, #4
	str	r3, [fp, #-8]
	b	.L54
.L55:
	.loc 1 372 0
	ldr	r3, [fp, #-20]
	cmp	r3, #0
	bne	.L56
	.loc 1 374 0
	ldr	r3, .L58+4
	ldr	r3, [r3, #0]
	mov	r0, r3
	ldr	r1, .L58+8
	ldr	r2, .L58+24
	ldr	r3, .L58+28
	bl	dbgPrint
	.loc 1 375 0
	mov	r3, #4
	str	r3, [fp, #-8]
	b	.L54
.L56:
	.loc 1 378 0
	ldr	r3, .L58+32
	ldr	r3, [r3, #0]
	cmp	r3, #1
	bne	.L57
	.loc 1 380 0
	ldr	r3, [fp, #-16]
	mov	r2, #1
	str	r2, [r3, #0]
	.loc 1 381 0
	ldr	r3, [fp, #-20]
	mov	r2, #0
	str	r2, [r3, #0]
	.loc 1 382 0
	mov	r3, #0
	str	r3, [fp, #-8]
	b	.L54
.L57:
	.loc 1 385 0
	ldr	r3, .L58+32
	ldr	r3, [r3, #0]
	cmp	r3, #2
	bne	.L54
	.loc 1 387 0
	ldr	r3, [fp, #-16]
	mov	r2, #3
	str	r2, [r3, #0]
	.loc 1 388 0
	ldr	r3, [fp, #-20]
	mov	r2, #2
	str	r2, [r3, #0]
	.loc 1 389 0
	mov	r3, #0
	str	r3, [fp, #-8]
.L54:
	.loc 1 392 0
	ldr	r3, [fp, #-8]
	.loc 1 393 0
	mov	r0, r3
	sub	sp, fp, #4
	ldmfd	sp!, {fp, pc}
.L59:
	.align	2
.L58:
	.word	gGpioMap
	.word	stderr
	.word	.LC3
	.word	362
	.word	.LC12
	.word	.LC21
	.word	374
	.word	.LC22
	.word	pcbRev
	.cfi_endproc
.LFE6:
	.size	gpioGetI2cPins, .-gpioGetI2cPins
	.section	.rodata
	.align	2
.LC23:
	.ascii	"InvalidError\000"
	.text
	.align	2
	.global	gpioErrToString
	.type	gpioErrToString, %function
gpioErrToString:
.LFB7:
	.loc 1 406 0
	.cfi_startproc
	@ args = 0, pretend = 0, frame = 8
	@ frame_needed = 1, uses_anonymous_args = 0
	@ link register save eliminated.
	str	fp, [sp, #-4]!
.LCFI14:
	.cfi_def_cfa_offset 4
	.cfi_offset 11, -4
	add	fp, sp, #0
.LCFI15:
	.cfi_def_cfa_register 11
	sub	sp, sp, #12
	str	r0, [fp, #-8]
	.loc 1 409 0
	ldr	r3, [fp, #-8]
	cmp	r3, #11
	bls	.L61
	.loc 1 411 0
	ldr	r3, .L63
	b	.L62
.L61:
	.loc 1 416 0
	ldr	r3, .L63+4
	ldr	r2, [fp, #-8]
	ldr	r3, [r3, r2, asl #2]
.L62:
	.loc 1 418 0
	mov	r0, r3
	add	sp, fp, #0
	ldmfd	sp!, {fp}
	bx	lr
.L64:
	.align	2
.L63:
	.word	.LC23
	.word	errorString.3344
	.cfi_endproc
.LFE7:
	.size	gpioErrToString, .-gpioErrToString
	.section	.rodata
	.align	2
.LC24:
	.ascii	"[%s:%d] \000"
	.align	2
.LC25:
	.ascii	"\012\000"
	.text
	.align	2
	.global	dbgPrint
	.type	dbgPrint, %function
dbgPrint:
.LFB8:
	.loc 1 440 0
	.cfi_startproc
	@ args = 4, pretend = 4, frame = 32
	@ frame_needed = 1, uses_anonymous_args = 1
	str	r3, [sp, #-4]!
.LCFI16:
	.cfi_def_cfa_offset 4
	.cfi_offset 3, -4
	stmfd	sp!, {fp, lr}
.LCFI17:
	.cfi_def_cfa_offset 12
	.cfi_offset 14, -8
	.cfi_offset 11, -12
	add	fp, sp, #4
.LCFI18:
	.cfi_def_cfa 11, 8
	sub	sp, sp, #36
	str	r0, [fp, #-28]
	str	r1, [fp, #-32]
	str	r2, [fp, #-36]
	.loc 1 442 0
	mov	r3, #0
	str	r3, [fp, #-12]
	.loc 1 443 0
	mov	r3, #0
	str	r3, [fp, #-16]
	.loc 1 445 0
	ldr	r3, [fp, #-28]
	cmp	r3, #0
	beq	.L66
	.loc 1 447 0
	ldr	r3, .L71
	ldr	r0, [fp, #-28]
	mov	r1, r3
	ldr	r2, [fp, #-32]
	ldr	r3, [fp, #-36]
	bl	fprintf
	str	r0, [fp, #-16]
	ldr	r3, [fp, #-16]
	cmp	r3, #0
	bge	.L67
	.loc 1 449 0
	ldr	r3, [fp, #-16]
	b	.L68
.L67:
	.loc 1 451 0
	ldr	r2, [fp, #-12]
	ldr	r3, [fp, #-16]
	add	r3, r2, r3
	str	r3, [fp, #-12]
	.loc 1 453 0
	add	r3, fp, #8
	str	r3, [fp, #-20]
	.loc 1 454 0
	ldr	r0, [fp, #-28]
	ldr	r1, [fp, #4]
	ldr	r2, [fp, #-20]
	bl	vfprintf
	str	r0, [fp, #-16]
	ldr	r3, [fp, #-16]
	cmp	r3, #0
	bge	.L69
	.loc 1 456 0
	ldr	r3, [fp, #-16]
	b	.L68
.L69:
	.loc 1 458 0
	ldr	r2, [fp, #-12]
	ldr	r3, [fp, #-16]
	add	r3, r2, r3
	str	r3, [fp, #-12]
	.loc 1 461 0
	ldr	r3, .L71+4
	ldr	r0, [fp, #-28]
	mov	r1, r3
	bl	fprintf
	str	r0, [fp, #-16]
	ldr	r3, [fp, #-16]
	cmp	r3, #0
	bge	.L70
	.loc 1 463 0
	ldr	r3, [fp, #-16]
	b	.L68
.L70:
	.loc 1 465 0
	ldr	r2, [fp, #-12]
	ldr	r3, [fp, #-16]
	add	r3, r2, r3
	str	r3, [fp, #-12]
.L66:
	.loc 1 468 0
	ldr	r3, [fp, #-12]
.L68:
	.loc 1 469 0
	mov	r0, r3
	sub	sp, fp, #4
	ldmfd	sp!, {fp, lr}
	add	sp, sp, #4
	bx	lr
.L72:
	.align	2
.L71:
	.word	.LC24
	.word	.LC25
	.cfi_endproc
.LFE8:
	.size	dbgPrint, .-dbgPrint
	.section	.rodata
	.align	2
.LC0:
	.word	0
	.word	1
	.word	4
	.word	7
	.word	8
	.word	9
	.word	10
	.word	11
	.word	14
	.word	15
	.word	17
	.word	18
	.word	21
	.word	22
	.word	23
	.word	24
	.word	25
	.align	2
.LC1:
	.word	2
	.word	3
	.word	4
	.word	7
	.word	8
	.word	9
	.word	10
	.word	11
	.word	14
	.word	15
	.word	17
	.word	18
	.word	22
	.word	23
	.word	24
	.word	25
	.word	27
	.text
	.align	2
	.type	gpioValidatePin, %function
gpioValidatePin:
.LFB9:
	.loc 1 481 0
	.cfi_startproc
	@ args = 0, pretend = 0, frame = 88
	@ frame_needed = 1, uses_anonymous_args = 0
	stmfd	sp!, {fp, lr}
.LCFI19:
	.cfi_def_cfa_offset 8
	.cfi_offset 14, -4
	.cfi_offset 11, -8
	add	fp, sp, #4
.LCFI20:
	.cfi_def_cfa 11, 4
	sub	sp, sp, #88
	str	r0, [fp, #-88]
	.loc 1 482 0
	mov	r3, #2
	str	r3, [fp, #-8]
	.loc 1 483 0
	mov	r3, #0
	str	r3, [fp, #-12]
	.loc 1 490 0
	ldr	r3, .L81
	ldr	r3, [r3, #0]
	cmp	r3, #0
	bne	.L74
	.loc 1 492 0
	ldr	r3, .L81+4
	ldr	r3, [r3, #0]
	cmp	r3, #0
	bne	.L75
	.loc 1 494 0
	mov	r3, #3
	str	r3, [fp, #-8]
	b	.L74
.L75:
	.loc 1 497 0
	ldr	r3, .L81+4
	ldr	r3, [r3, #0]
	cmp	r3, #1
	bne	.L76
.LBB6:
	.loc 1 499 0
	ldr	r3, .L81+8
	sub	r1, fp, #80
	mov	r2, r3
	mov	r3, #68
	mov	r0, r1
	mov	r1, r2
	mov	r2, r3
	bl	memcpy
	.loc 1 500 0
	ldr	r2, .L81+12
	sub	r3, fp, #80
	mov	r1, r2
	mov	r2, r3
	mov	r3, #68
	mov	r0, r1
	mov	r1, r2
	mov	r2, r3
	bl	memcpy
	.loc 1 501 0
	ldr	r3, .L81
	mov	r2, #17
	str	r2, [r3, #0]
	b	.L74
.L76:
.LBE6:
	.loc 1 503 0
	ldr	r3, .L81+4
	ldr	r3, [r3, #0]
	cmp	r3, #2
	bne	.L74
.LBB7:
	.loc 1 505 0
	ldr	r3, .L81+16
	sub	r1, fp, #80
	mov	r2, r3
	mov	r3, #68
	mov	r0, r1
	mov	r1, r2
	mov	r2, r3
	bl	memcpy
	.loc 1 506 0
	ldr	r2, .L81+12
	sub	r3, fp, #80
	mov	r1, r2
	mov	r2, r3
	mov	r3, #68
	mov	r0, r1
	mov	r1, r2
	mov	r2, r3
	bl	memcpy
	.loc 1 507 0
	ldr	r3, .L81
	mov	r2, #17
	str	r2, [r3, #0]
.L74:
.LBE7:
	.loc 1 511 0
	mov	r3, #0
	str	r3, [fp, #-12]
	b	.L77
.L80:
	.loc 1 513 0
	ldr	r2, [fp, #-88]
	ldr	r3, .L81+12
	ldr	r1, [fp, #-12]
	ldr	r3, [r3, r1, asl #2]
	cmp	r2, r3
	bne	.L78
	.loc 1 515 0
	mov	r3, #0
	str	r3, [fp, #-8]
	.loc 1 516 0
	b	.L79
.L78:
	.loc 1 511 0
	ldr	r3, [fp, #-12]
	add	r3, r3, #1
	str	r3, [fp, #-12]
.L77:
	.loc 1 511 0 is_stmt 0 discriminator 1
	ldr	r2, [fp, #-12]
	ldr	r3, .L81
	ldr	r3, [r3, #0]
	cmp	r2, r3
	bcc	.L80
.L79:
	.loc 1 520 0 is_stmt 1
	ldr	r3, [fp, #-8]
	.loc 1 521 0
	mov	r0, r3
	sub	sp, fp, #4
	ldmfd	sp!, {fp, pc}
.L82:
	.align	2
.L81:
	.word	pinCnt.3360
	.word	pcbRev
	.word	.LC0
	.word	validPins.3359
	.word	.LC1
	.cfi_endproc
.LFE9:
	.size	gpioValidatePin, .-gpioValidatePin
	.local	pinCnt.3360
	.comm	pinCnt.3360,4,4
	.local	validPins.3359
	.comm	validPins.3359,68,4
	.section	.rodata
	.align	2
.LC26:
	.ascii	"OK\000"
	.align	2
.LC27:
	.ascii	"ERROR_DEFAULT\000"
	.align	2
.LC28:
	.ascii	"ERROR_INVALID_PIN_NUMBER\000"
	.align	2
.LC29:
	.ascii	"ERROR_RANGE\000"
	.align	2
.LC30:
	.ascii	"ERROR_NULL\000"
	.align	2
.LC31:
	.ascii	"ERROR_EXTERNAL\000"
	.align	2
.LC32:
	.ascii	"ERROR_NOT_INITIALISED\000"
	.align	2
.LC33:
	.ascii	"ERROR_ALREADY_INITIALISED\000"
	.align	2
.LC34:
	.ascii	"ERROR_I2C_NACK\000"
	.align	2
.LC35:
	.ascii	"ERROR_I2C\000"
	.align	2
.LC36:
	.ascii	"ERROR_I2C_CLK_TIMEOUT\000"
	.align	2
.LC37:
	.ascii	"ERROR_INVALID_BSC\000"
	.data
	.align	2
	.type	errorString.3344, %object
	.size	errorString.3344, 48
errorString.3344:
	.word	.LC26
	.word	.LC27
	.word	.LC28
	.word	.LC29
	.word	.LC30
	.word	.LC31
	.word	.LC32
	.word	.LC33
	.word	.LC34
	.word	.LC35
	.word	.LC36
	.word	.LC37
	.text
.Letext0:
	.file 2 "/usr/lib/gcc/arm-linux-gnueabihf/4.6/include/stddef.h"
	.file 3 "/usr/include/arm-linux-gnueabihf/bits/types.h"
	.file 4 "/usr/include/stdio.h"
	.file 5 "/usr/include/libio.h"
	.file 6 "/usr/lib/gcc/arm-linux-gnueabihf/4.6/include/stdarg.h"
	.file 7 "<built-in>"
	.file 8 "/usr/include/stdint.h"
	.file 9 "../include/rpiGpio.h"
	.file 10 "/usr/include/time.h"
	.section	.note.GNU-stack,"",%progbits


  /**
   * @file
   *  @brief Contains source for the GPIO functionality.
   *
   *  This is is part of https://github.com/alanbarr/RaspberryPi-GPIO
   *  a C library for basic control of the Raspberry Pi's GPIO pins.
   *  Copyright (C) Alan Barr 2012
   *
   *  This code was loosely based on the example code
   *  provided by Dom and Gert found at:
   *      http://elinux.org/RPi_Low-level_peripherals
   *
   *  This program is free software: you can redistribute it and/or modify
   *  it under the terms of the GNU General Public License as published by
   *  the Free Software Foundation, either version 3 of the License, or
   *  (at your option) any later version.
   *
   *  This program is distributed in the hope that it will be useful,
   *  but WITHOUT ANY WARRANTY; without even the implied warranty of
   *  MERCHANTABILITY or FITNESS FOR A PARTICULAR PURPOSE. See the
   *  GNU General Public License for more details.
   *
   *  You should have received a copy of the GNU General Public License
   *  along with this program. If not, see <http://www.gnu.org/licenses/>.
   *
   */

  #include "gpio.h"

  /* Local / internal prototypes */
  static errStatus gpioValidatePin(int gpioNumber);

  /**** Globals ****/
  /** @brief Pointer which will be mmap'd to the GPIO memory in /dev/mem */
  static volatile uint32_t * gGpioMap = NULL;

  /** @brief PCB revision that executable is being run on */
  static tPcbRev pcbRev = pcbRevError;

  /**
   * @brief   Maps the memory used for GPIO access. This function must be called
   *          prior to any of the other GPIO calls.
   * @return  An error from #errStatus. */
  errStatus gpioSetup(void)
  {
      int mem_fd = 0;
      errStatus rtn = ERROR_DEFAULT;

      if ((mem_fd = open("/dev/mem", O_RDWR)) < 0)
      {
          dbgPrint(DBG_INFO, "open() failed. /dev/mem. errno %s.", strerror(errno));
          rtn = ERROR_EXTERNAL;
      }

      else if ((gGpioMap = (volatile uint32_t *)mmap(NULL,
                                                     GPIO_MAP_SIZE,
                                                     PROT_READ|PROT_WRITE,
                                                     MAP_SHARED,
                                                     mem_fd,
                                                     GPIO_BASE)) == MAP_FAILED)
      {
          dbgPrint(DBG_INFO, "mmap() failed. errno: %s.", strerror(errno));
          rtn = ERROR_EXTERNAL;
      }

      /* Close the fd, we have now mapped it */
      else if (close(mem_fd) != OK)
      {
          dbgPrint(DBG_INFO, "close() failed. errno: %s.", strerror(errno));
          rtn = ERROR_EXTERNAL;
      }

      else
      {
          FILE* cpuinfo = fopen("/proc/cpuinfo", "r");
          if (cpuinfo)
          {
              char* line = NULL;
              ssize_t linelen;
              size_t foo;

              while (((linelen = getline(&line, &foo, cpuinfo)) >= 0))
              {
                  if (strstr(line, "Revision") == line)
                  {
                      char* rev = strstr(line, ":");
                      if (rev)
                      {
                          long revision = strtol(rev + 1, NULL, 16);

                          if (revision <= 3)
                          {
                              pcbRev = pcbRev1;
                          }
                        
                          else
                          {
                              pcbRev = pcbRev2;
                          }
                      }
                  }
              } /* while */
              if (pcbRev != pcbRevError)
              {
                  rtn = OK;
              }
              else
              {
                  dbgPrint(DBG_INFO, "did not find revision in cpuinfo.");
                  rtn = ERROR_EXTERNAL;
              }

              if (line)
              {
                  free(line);
              }
              fclose(cpuinfo);
          }
          else
          {
              dbgPrint(DBG_INFO, "can't open /proc/cpuinfo. errno: %s.", strerror(errno));
              rtn = ERROR_EXTERNAL;
          }
      }

      return rtn;
  }


  /**
   * @brief   Unmaps the memory used for the gpio pins. This function should be
   *          called when finished with the GPIO pins.
   * @return  An error from #errStatus. */
  errStatus gpioCleanup(void)
  {
      errStatus rtn = ERROR_DEFAULT;

      if (gGpioMap == NULL)
      {
          dbgPrint(DBG_INFO, "gGpioMap was NULL. Ensure gpioSetup() was called successfully.");
          rtn = ERROR_NULL;
      }

      else if (munmap((void *)gGpioMap, GPIO_MAP_SIZE) != OK)
      {
          dbgPrint(DBG_INFO, "mummap() failed. errno %s.", strerror(errno));
          rtn = ERROR_EXTERNAL;
      }

      else
      {
          gGpioMap = NULL;
          rtn = OK;
      }
      return rtn;
  }


  /**
   * @brief               Sets the functionality of the desired pin.
   * @param gpioNumber    The gpio pin number to change.
   * @param function      The desired functionality for the pin.
   * @return              An error from #errStatus. */
  errStatus gpioSetFunction(int gpioNumber, eFunction function)
  {
      errStatus rtn = ERROR_DEFAULT;

      if (gGpioMap == NULL)
      {
          dbgPrint(DBG_INFO, "gGpioMap was NULL. Ensure gpioSetup() called successfully.");
          rtn = ERROR_NULL;
      }

      else if (function < eFunctionMin || function > eFunctionMax)
      {
          dbgPrint(DBG_INFO, "eFunction was out of range. %d", function);
          rtn = ERROR_RANGE;
      }

      else if ((rtn = gpioValidatePin(gpioNumber)) != OK)
      {
          dbgPrint(DBG_INFO, "gpioValidatePin() failed. Ensure pin %d is valid.", gpioNumber);
      }

      else
      {
          /* Clear what ever function bits currently exist - this puts the pin
           * into input mode.*/
          *(gGpioMap + (gpioNumber / 10)) &= ~(GPFSEL_BITS << ((gpioNumber % 10) * 3));

          /* Set the three pins for the pin to the desired value */
          *(gGpioMap + (gpioNumber / 10)) |=  (function << ((gpioNumber % 10) * 3));

          rtn = OK;
      }

      return rtn;
  }


  /**
   * @brief               Sets a pin to high or low.
   * @details             The pin should be configured as an ouput with
   *                      gpioSetFunction() prior to this.
   * @param gpioNumber    The pin to set.
   * @param state         The desired state of the pin.
   * @return              An error from #errStatus.*/
  errStatus gpioSetPin(int gpioNumber, eState state)
  {
      errStatus rtn = ERROR_DEFAULT;

      if (gGpioMap == NULL)
      {
         dbgPrint(DBG_INFO, "gGpioMap was NULL. Ensure gpioSetup() was called successfully.");
         rtn = ERROR_NULL;
      }

      else if ((rtn = gpioValidatePin(gpioNumber)) != OK)
      {
         dbgPrint(DBG_INFO, "gpioValidatePin() failed. Ensure pin %d is valid.", gpioNumber);
      }

      else if (state == high)
      {
          /* The offsets are all in bytes. Divide by sizeof uint32_t to allow
           * pointer addition. */
          GPIO_GPSET0 = 0x1 << gpioNumber;
          rtn = OK;
      }

      else if (state == low)
      {
          /* The offsets are all in bytes. Divide by sizeof uint32_t to allow
           * pointer addition. */
          GPIO_GPCLR0 = 0x1 << gpioNumber;
          rtn = OK;
      }

      else
      {
         dbgPrint(DBG_INFO,"state %d should have been %d or %d", state, low, high);
         rtn = ERROR_RANGE;
      }

      return rtn;
  }


  /**
   * @brief               Reads the current state of a gpio pin.
   * @param gpioNumber    The number of the GPIO pin to read.
   * @param[out] state    Pointer to the variable in which the GPIO pin state is
   *                      returned.
   * @return              An error from #errStatus. */
  errStatus gpioReadPin(int gpioNumber, eState * state)
  {
      errStatus rtn = ERROR_DEFAULT;

      if (gGpioMap == NULL)
      {
          dbgPrint(DBG_INFO, "gGpioMap was NULL. Ensure gpioSetup() was called successfully.");
          rtn = ERROR_NULL;
      }

      else if (state == NULL)
      {
          dbgPrint(DBG_INFO, "Parameter state was NULL.");
          rtn = ERROR_NULL;
      }

      else if ((rtn = gpioValidatePin(gpioNumber)) != OK)
      {
          dbgPrint(DBG_INFO, "gpioValidatePin() failed. Pin %d isn't valid.", gpioNumber);
      }

      else
      {
          /* Check if the appropriate bit is high */
          if (GPIO_GPLEV0 & (0x1 << gpioNumber))
          {
              *state = high;
          }

          else
          {
              *state = low;
          }

          rtn = OK;
      }

      return rtn;
  }

  /**
   * @brief                Allows configuration of the internal resistor at a GPIO pin.
   * @details              The GPIO pins on the BCM2835 have the option of configuring a
   *                       pullup, pulldown or no resistor at the pin.
   * @param gpioNumber     The GPIO pin to configure.
   * @param resistorOption The available resistor options.
   * @return               An error from #errStatus. */
  errStatus gpioSetPullResistor(int gpioNumber, eResistor resistorOption)
  {
      errStatus rtn = ERROR_DEFAULT;
      struct timespec sleepTime;

      if (gGpioMap == NULL)
      {
         dbgPrint(DBG_INFO, "gGpioMap was NULL. Ensure gpioSetup() was called successfully.");
         rtn = ERROR_NULL;
      }

      else if ((rtn = gpioValidatePin(gpioNumber)) != OK)
      {
         dbgPrint(DBG_INFO, "gpioValidatePin() failed. Pin %d isn't valid.", gpioNumber);
      }

      else if (resistorOption < pullDisable || resistorOption > pullup)
      {
         dbgPrint(DBG_INFO, "resistorOption value: %d was out of range.", resistorOption);
         rtn = ERROR_RANGE;
      }

      else
      {
          sleepTime.tv_sec  = 0;
          sleepTime.tv_nsec = 1000 * RESISTOR_SLEEP_US;

          /* Set the GPPUD register with the desired resistor type */
          GPIO_GPPUD = resistorOption;
          /* Wait for control signal to be set up */
          nanosleep(&sleepTime, NULL);
          /* Clock the control signal for desired resistor */
          GPIO_GPPUDCLK0 = (0x1 << gpioNumber);
          /* Hold to set */
          nanosleep(&sleepTime, NULL);
          GPIO_GPPUD = 0;
          GPIO_GPPUDCLK0 = 0;

          rtn = OK;
      }


      return rtn;
  }

  /**
   * @brief                       Get the correct I2C pins.
   * @details                     The different revisions of the PI have their I2C
   *                              ports on different GPIO
   *                              pins which require different BSC modules.
   * @param[out] gpioNumberScl    Integer to be populated with scl gpio number.
   * @param[out] gpioNumberSda    Integer to be populated with sda gpio number.
   * @todo TODO                   Does this need to be public or internal only?
   * @return                      An error from #errStatus. */
  errStatus gpioGetI2cPins(int * gpioNumberScl, int * gpioNumberSda)
  {
      errStatus rtn = ERROR_DEFAULT;

      if (gGpioMap == NULL)
      {
          dbgPrint(DBG_INFO, "gGpioMap was NULL. Ensure gpioSetup() was called successfully.");
          rtn = ERROR_NULL;
      }

      else if (gpioNumberScl == NULL)
      {
          dbgPrint(DBG_INFO, "Parameter gpioNumberScl is NULL.");
          rtn = ERROR_NULL;
      }
    
      else if (gpioNumberSda == NULL)
      {
          dbgPrint(DBG_INFO, "Parameter gpioNumberSda is NULL.");
          rtn = ERROR_NULL;
      }

      else if (pcbRev == pcbRev1)
      {
          *gpioNumberScl = REV1_SCL;
          *gpioNumberSda = REV1_SDA;
          rtn = OK;
      }

      else if (pcbRev == pcbRev2)
      {
          *gpioNumberScl = REV2_SCL;
          *gpioNumberSda = REV2_SDA;
          rtn = OK;
      }

      return rtn;
  }


  #undef  ERROR
  /** Redefining to replace macro with x as a string, i.e. "x". For use in
    * gpioErrToString() */
  #define ERROR(x) #x,

  /**
   * @brief       Debug function which converts an error from errStatus to a string.
   * @param error Error from #errStatus.
   * @return      String representation of errStatus parameter error. */
  const char * gpioErrToString(errStatus error)
  {
      static const char * errorString[] = { ERRORS };

      if (error < 0 || error >= ERROR_MAX)
      {
          return "InvalidError";
      }

      else
      {
          return errorString[error];
      }
  }


  /**
   * @brief            Debug function wrapper for fprintf().
   * @details          Allows file and line information to be added easier
   *                   to output strings. #DBG_INFO is a macro which is useful
   *                   to call as the "first" parameter to this function. Note
   *                   this function will add on a newline to the end of a format
   *                   string so one is generally not required in \p format.
   * @param[in] stream Output stream for strings, e.g. stderr, stdout.
   * @param[in] file   Name of file to be printed. Should be retrieved with __FILE__.
   * @param line       Line number to print. Should be retrieved with __LINE__.
   * @param[in] format Formatted string in the format which printf() would accept.
   * @param ...        Additional arguments - to fill in placeholders in parameter
   *                   \p format.
   * @return           This function uses the printf() family functions and the
   *                   returned integer is what is returned from these calls: If
   *                   successful the number or characters printed is returned,
   *                   if unsuccessful a negative value.
   */
  int dbgPrint(FILE * stream, const char * file, int line, const char * format, ...)
  {
      va_list arguments;
      int rtn = 0;
      int tempRtn = 0;

      if (stream != NULL)
      {
          if ((tempRtn = fprintf(stream,"[%s:%d] ", file, line)) < 0)
          {
              return tempRtn;
          }
          rtn += tempRtn;

          va_start(arguments, format);
          if ((tempRtn = vfprintf(stream, format, arguments)) < 0)
          {
              return tempRtn;
          }
          rtn += tempRtn;
          va_end(arguments);

          if ((tempRtn = fprintf(stream,"\n")) < 0)
          {
              return tempRtn;
          }
          rtn += tempRtn;

      }
      return rtn;
  }

  /****************************** Internal Functions ******************************/

  /**
   * @brief               Internal function which Validates that the pin
   *                      \p gpioNumber is valid for the Raspberry Pi.
   * @details             The first time this function is called it will perform
   *                      some basic initalisation on internal variables.
   * @param gpioNumber    The pin number to check.
   * @return              An error from #errStatus. */
  static errStatus gpioValidatePin(int gpioNumber)
  {
      errStatus rtn = ERROR_INVALID_PIN_NUMBER;
      int index = 0;
      /* TODO REV1 and REV2 have the same pincount. REV2 technically has more if 
       * P5 is supported. If there is a REV3 the size of this array will need to
       * be addressed. */
      static uint32_t validPins[REV2_PINCNT] = {0};
      static uint32_t pinCnt = 0;

      if (pinCnt == 0)
      {
          if (pcbRev == pcbRevError)
          {
              rtn = ERROR_RANGE;
          }

          else if (pcbRev == pcbRev1)
          {
              const uint32_t validPinsForRev1[REV1_PINCNT] = REV1_PINS;
              memcpy(validPins, validPinsForRev1, sizeof(validPinsForRev1));
              pinCnt = REV1_PINCNT;
          }
          else if (pcbRev == pcbRev2)
          {
              const uint32_t validPinsForRev2[REV2_PINCNT] = REV2_PINS;
              memcpy(validPins, validPinsForRev2, sizeof(validPinsForRev2));
              pinCnt = REV2_PINCNT;
          }
      }

      for (index = 0; index < pinCnt; index++)
      {
          if (gpioNumber == validPins[index])
          {
              rtn = OK;
              break;
          }
      }

      return rtn;
  }


